#include <math.h>
#include <stdio.h>
#include <stdlib.h>
#include <string.h>

int main()
{
	int col,row;
	int mat[200][200];
	int i,j;

	scanf("%d%d",&row,&col);
	for(i=0;i<row;i++)
		for(j=0;j<col;j++)
			scanf("%d",&mat[i][j]);
	for(i=0,j=0;;)
	{
		if(i<row&&j<col)
		    printf("%d\n",mat[i][j]);
        if(i==row-1&&j==col-1)break;
		if(j==0)
		{
			j=i+1;
			i=0;
		}
		else
		{
			i++;
			j--;
		}
	}
	return 0;
}